target datalayout = "e-m:e-p270:32:32-p271:32:32-p272:64:64-i64:64-i128:128-f80:128-n8:16:32:64-S128"
target triple = "x86_64-pc-linux-gnu"

%struct.Vec_Ptr_t_ = type { i32, i32, ptr }
%struct.Abc_Obj_t_ = type { ptr, ptr, i32, i32, %struct.Vec_Int_t_, %struct.Vec_Int_t_, %union.anon, %union.anon.0 }
%struct.Vec_Int_t_ = type { i32, i32, ptr }
%union.anon = type { ptr }
%union.anon.0 = type { ptr }
%struct.Abc_Ntk_t_ = type { i32, i32, ptr, ptr, ptr, ptr, ptr, ptr, ptr, ptr, ptr, ptr, ptr, [11 x i32], i32, i32, i32, i32, ptr, i32, ptr, ptr, i32, i32, i32, double, i32, %struct.Vec_Int_t_, ptr, ptr, ptr, ptr, ptr, float, i32, ptr, ptr, ptr, ptr, ptr, ptr, ptr, ptr, ptr, ptr, ptr, ptr, ptr, ptr, ptr, ptr, ptr, ptr, ptr, ptr, ptr, ptr }

; Function Attrs: inlinehint nounwind uwtable
define internal void @Vec_IntGrow(ptr noundef %0, i32 noundef %1) #2 {
  %3 = alloca ptr, align 8
  %4 = alloca i32, align 4
  store ptr %0, ptr %3, align 8, !tbaa !117
  store i32 %1, ptr %4, align 4, !tbaa !8
  %5 = load ptr, ptr %3, align 8, !tbaa !117
  %6 = getelementptr inbounds nuw %struct.Vec_Int_t_, ptr %5, i32 0, i32 0
  %7 = load i32, ptr %6, align 8, !tbaa !123
  %8 = load i32, ptr %4, align 4, !tbaa !8
  %9 = icmp sge i32 %7, %8
  br i1 %9, label %10, label %11

10:                                               ; preds = %2
  br label %36

11:                                               ; preds = %2
  %12 = load ptr, ptr %3, align 8, !tbaa !117
  %13 = getelementptr inbounds nuw %struct.Vec_Int_t_, ptr %12, i32 0, i32 2
  %14 = load ptr, ptr %13, align 8, !tbaa !119
  %15 = icmp ne ptr %14, null
  br i1 %15, label %16, label %24

16:                                               ; preds = %11
  %17 = load ptr, ptr %3, align 8, !tbaa !117
  %18 = getelementptr inbounds nuw %struct.Vec_Int_t_, ptr %17, i32 0, i32 2
  %19 = load ptr, ptr %18, align 8, !tbaa !119
  %20 = load i32, ptr %4, align 4, !tbaa !8
  %21 = sext i32 %20 to i64
  %22 = mul i64 4, %21
  %23 = call ptr @realloc(ptr noundef %19, i64 noundef %22) #8
  br label %29

24:                                               ; preds = %11
  %25 = load i32, ptr %4, align 4, !tbaa !8
  %26 = sext i32 %25 to i64
  %27 = mul i64 4, %26
  %28 = call noalias ptr @malloc(i64 noundef %27) #9
  br label %29

29:                                               ; preds = %24, %16
  %30 = phi ptr [ %23, %16 ], [ %28, %24 ]
  %31 = load ptr, ptr %3, align 8, !tbaa !117
  %32 = getelementptr inbounds nuw %struct.Vec_Int_t_, ptr %31, i32 0, i32 2
  store ptr %30, ptr %32, align 8, !tbaa !119
  %33 = load i32, ptr %4, align 4, !tbaa !8
  %34 = load ptr, ptr %3, align 8, !tbaa !117
  %35 = getelementptr inbounds nuw %struct.Vec_Int_t_, ptr %34, i32 0, i32 0
  store i32 %33, ptr %35, align 8, !tbaa !123
  br label %36

36:                                               ; preds = %29, %10
  ret void
}

; Function Attrs: inlinehint nounwind uwtable
define internal void @Vec_IntWriteEntry(ptr noundef %0, i32 noundef %1, i32 noundef %2) #2 {
  %4 = alloca ptr, align 8
  %5 = alloca i32, align 4
  %6 = alloca i32, align 4
  store ptr %0, ptr %4, align 8, !tbaa !117
  store i32 %1, ptr %5, align 4, !tbaa !8
  store i32 %2, ptr %6, align 4, !tbaa !8
  %7 = load i32, ptr %6, align 4, !tbaa !8
  %8 = load ptr, ptr %4, align 8, !tbaa !117
  %9 = getelementptr inbounds nuw %struct.Vec_Int_t_, ptr %8, i32 0, i32 2
  %10 = load ptr, ptr %9, align 8, !tbaa !119
  %11 = load i32, ptr %5, align 4, !tbaa !8
  %12 = sext i32 %11 to i64
  %13 = getelementptr inbounds i32, ptr %10, i64 %12
  store i32 %7, ptr %13, align 4, !tbaa !8
  ret void
}

; Function Attrs: inlinehint nounwind uwtable
define internal void @Vec_IntFillExtra(ptr noundef %0, i32 noundef %1, i32 noundef %2) #2 {
  %4 = alloca ptr, align 8
  %5 = alloca i32, align 4
  %6 = alloca i32, align 4
  %7 = alloca i32, align 4
  %8 = alloca i32, align 4
  store ptr %0, ptr %4, align 8, !tbaa !117
  store i32 %1, ptr %5, align 4, !tbaa !8
  store i32 %2, ptr %6, align 4, !tbaa !8
  call void @llvm.lifetime.start.p0(i64 4, ptr %7) #7
  %9 = load i32, ptr %5, align 4, !tbaa !8
  %10 = load ptr, ptr %4, align 8, !tbaa !117
  %11 = getelementptr inbounds nuw %struct.Vec_Int_t_, ptr %10, i32 0, i32 1
  %12 = load i32, ptr %11, align 4, !tbaa !118
  %13 = icmp sle i32 %9, %12
  br i1 %13, label %14, label %15

14:                                               ; preds = %3
  store i32 1, ptr %8, align 4
  br label %61

15:                                               ; preds = %3
  %16 = load i32, ptr %5, align 4, !tbaa !8
  %17 = load ptr, ptr %4, align 8, !tbaa !117
  %18 = getelementptr inbounds nuw %struct.Vec_Int_t_, ptr %17, i32 0, i32 0
  %19 = load i32, ptr %18, align 8, !tbaa !123
  %20 = mul nsw i32 2, %19
  %21 = icmp sgt i32 %16, %20
  br i1 %21, label %22, label %25

22:                                               ; preds = %15
  %23 = load ptr, ptr %4, align 8, !tbaa !117
  %24 = load i32, ptr %5, align 4, !tbaa !8
  call void @Vec_IntGrow(ptr noundef %23, i32 noundef %24)
  br label %38

25:                                               ; preds = %15
  %26 = load i32, ptr %5, align 4, !tbaa !8
  %27 = load ptr, ptr %4, align 8, !tbaa !117
  %28 = getelementptr inbounds nuw %struct.Vec_Int_t_, ptr %27, i32 0, i32 0
  %29 = load i32, ptr %28, align 8, !tbaa !123
  %30 = icmp sgt i32 %26, %29
  br i1 %30, label %31, label %37

31:                                               ; preds = %25
  %32 = load ptr, ptr %4, align 8, !tbaa !117
  %33 = load ptr, ptr %4, align 8, !tbaa !117
  %34 = getelementptr inbounds nuw %struct.Vec_Int_t_, ptr %33, i32 0, i32 0
  %35 = load i32, ptr %34, align 8, !tbaa !123
  %36 = mul nsw i32 2, %35
  call void @Vec_IntGrow(ptr noundef %32, i32 noundef %36)
  br label %37

37:                                               ; preds = %31, %25
  br label %38

38:                                               ; preds = %37, %22
  %39 = load ptr, ptr %4, align 8, !tbaa !117
  %40 = getelementptr inbounds nuw %struct.Vec_Int_t_, ptr %39, i32 0, i32 1
  %41 = load i32, ptr %40, align 4, !tbaa !118
  store i32 %41, ptr %7, align 4, !tbaa !8
  br label %42

42:                                               ; preds = %54, %38
  %43 = load i32, ptr %7, align 4, !tbaa !8
  %44 = load i32, ptr %5, align 4, !tbaa !8
  %45 = icmp slt i32 %43, %44
  br i1 %45, label %46, label %57

46:                                               ; preds = %42
  %47 = load i32, ptr %6, align 4, !tbaa !8
  %48 = load ptr, ptr %4, align 8, !tbaa !117
  %49 = getelementptr inbounds nuw %struct.Vec_Int_t_, ptr %48, i32 0, i32 2
  %50 = load ptr, ptr %49, align 8, !tbaa !119
  %51 = load i32, ptr %7, align 4, !tbaa !8
  %52 = sext i32 %51 to i64
  %53 = getelementptr inbounds i32, ptr %50, i64 %52
  store i32 %47, ptr %53, align 4, !tbaa !8
  br label %54

54:                                               ; preds = %46
  %55 = load i32, ptr %7, align 4, !tbaa !8
  %56 = add nsw i32 %55, 1
  store i32 %56, ptr %7, align 4, !tbaa !8
  br label %42, !llvm.loop !124

57:                                               ; preds = %42
  %58 = load i32, ptr %5, align 4, !tbaa !8
  %59 = load ptr, ptr %4, align 8, !tbaa !117
  %60 = getelementptr inbounds nuw %struct.Vec_Int_t_, ptr %59, i32 0, i32 1
  store i32 %58, ptr %60, align 4, !tbaa !118
  store i32 0, ptr %8, align 4
  br label %61

61:                                               ; preds = %57, %14
  call void @llvm.lifetime.end.p0(i64 4, ptr %7) #7
  %62 = load i32, ptr %8, align 4
  switch i32 %62, label %64 [
    i32 0, label %63
    i32 1, label %63
  ]

63:                                               ; preds = %61, %61
  ret void

64:                                               ; preds = %61
  unreachable
}

; Function Attrs: inlinehint nounwind uwtable
define internal void @Vec_IntSetEntry(ptr noundef %0, i32 noundef %1, i32 noundef %2) #2 {
  %4 = alloca ptr, align 8
  %5 = alloca i32, align 4
  %6 = alloca i32, align 4
  store ptr %0, ptr %4, align 8, !tbaa !117
  store i32 %1, ptr %5, align 4, !tbaa !8
  store i32 %2, ptr %6, align 4, !tbaa !8
  %7 = load ptr, ptr %4, align 8, !tbaa !117
  %8 = load i32, ptr %5, align 4, !tbaa !8
  %9 = add nsw i32 %8, 1
  call void @Vec_IntFillExtra(ptr noundef %7, i32 noundef %9, i32 noundef 0)
  %10 = load ptr, ptr %4, align 8, !tbaa !117
  %11 = load i32, ptr %5, align 4, !tbaa !8
  %12 = load i32, ptr %6, align 4, !tbaa !8
  call void @Vec_IntWriteEntry(ptr noundef %10, i32 noundef %11, i32 noundef %12)
  ret void
}

; Function Attrs: inlinehint nounwind uwtable
define internal i32 @Abc_ObjId(ptr noundef %0) #2 {
  %2 = alloca ptr, align 8
  store ptr %0, ptr %2, align 8, !tbaa !12
  %3 = load ptr, ptr %2, align 8, !tbaa !12
  %4 = getelementptr inbounds nuw %struct.Abc_Obj_t_, ptr %3, i32 0, i32 2
  %5 = load i32, ptr %4, align 8, !tbaa !16
  ret i32 %5
}

; Function Attrs: inlinehint nounwind uwtable
define internal void @Abc_NodeSetTravId(ptr noundef %0, i32 noundef %1) #2 {
  %3 = alloca ptr, align 8
  %4 = alloca i32, align 4
  store ptr %0, ptr %3, align 8, !tbaa !12
  store i32 %1, ptr %4, align 4, !tbaa !8
  %5 = load ptr, ptr %3, align 8, !tbaa !12
  %6 = call ptr @Abc_ObjNtk(ptr noundef %5)
  %7 = getelementptr inbounds nuw %struct.Abc_Ntk_t_, ptr %6, i32 0, i32 27
  %8 = load ptr, ptr %3, align 8, !tbaa !12
  %9 = call i32 @Abc_ObjId(ptr noundef %8)
  %10 = load i32, ptr %4, align 4, !tbaa !8
  call void @Vec_IntSetEntry(ptr noundef %7, i32 noundef %9, i32 noundef %10)
  ret void
}

; Function Attrs: inlinehint nounwind uwtable
define internal ptr @Abc_ObjNtk(ptr noundef %0) #2 {
  %2 = alloca ptr, align 8
  store ptr %0, ptr %2, align 8, !tbaa !12
  %3 = load ptr, ptr %2, align 8, !tbaa !12
  %4 = getelementptr inbounds nuw %struct.Abc_Obj_t_, ptr %3, i32 0, i32 0
  %5 = load ptr, ptr %4, align 8, !tbaa !102
  ret ptr %5
}

; Function Attrs: inlinehint nounwind uwtable
define internal i32 @Abc_ObjFaninC1(ptr noundef %0) #2 {
  %2 = alloca ptr, align 8
  store ptr %0, ptr %2, align 8, !tbaa !12
  %3 = load ptr, ptr %2, align 8, !tbaa !12
  %4 = getelementptr inbounds nuw %struct.Abc_Obj_t_, ptr %3, i32 0, i32 3
  %5 = load i32, ptr %4, align 4
  %6 = lshr i32 %5, 11
  %7 = and i32 %6, 1
  ret i32 %7
}

; Function Attrs: inlinehint nounwind uwtable
define internal i32 @Abc_ObjFaninC0(ptr noundef %0) #2 {
  %2 = alloca ptr, align 8
  store ptr %0, ptr %2, align 8, !tbaa !12
  %3 = load ptr, ptr %2, align 8, !tbaa !12
  %4 = getelementptr inbounds nuw %struct.Abc_Obj_t_, ptr %3, i32 0, i32 3
  %5 = load i32, ptr %4, align 4
  %6 = lshr i32 %5, 10
  %7 = and i32 %6, 1
  ret i32 %7
}

; Function Attrs: inlinehint nounwind uwtable
define internal ptr @Abc_ObjFanin1(ptr noundef %0) #2 {
  %2 = alloca ptr, align 8
  store ptr %0, ptr %2, align 8, !tbaa !12
  %3 = load ptr, ptr %2, align 8, !tbaa !12
  %4 = getelementptr inbounds nuw %struct.Abc_Obj_t_, ptr %3, i32 0, i32 0
  %5 = load ptr, ptr %4, align 8, !tbaa !102
  %6 = getelementptr inbounds nuw %struct.Abc_Ntk_t_, ptr %5, i32 0, i32 5
  %7 = load ptr, ptr %6, align 8, !tbaa !23
  %8 = getelementptr inbounds nuw %struct.Vec_Ptr_t_, ptr %7, i32 0, i32 2
  %9 = load ptr, ptr %8, align 8, !tbaa !14
  %10 = load ptr, ptr %2, align 8, !tbaa !12
  %11 = getelementptr inbounds nuw %struct.Abc_Obj_t_, ptr %10, i32 0, i32 4
  %12 = getelementptr inbounds nuw %struct.Vec_Int_t_, ptr %11, i32 0, i32 2
  %13 = load ptr, ptr %12, align 8, !tbaa !43
  %14 = getelementptr inbounds i32, ptr %13, i64 1
  %15 = load i32, ptr %14, align 4, !tbaa !8
  %16 = sext i32 %15 to i64
  %17 = getelementptr inbounds ptr, ptr %9, i64 %16
  %18 = load ptr, ptr %17, align 8, !tbaa !20
  ret ptr %18
}

; Function Attrs: inlinehint nounwind uwtable
define internal ptr @Abc_ObjFanin0(ptr noundef %0) #2 {
  %2 = alloca ptr, align 8
  store ptr %0, ptr %2, align 8, !tbaa !12
  %3 = load ptr, ptr %2, align 8, !tbaa !12
  %4 = getelementptr inbounds nuw %struct.Abc_Obj_t_, ptr %3, i32 0, i32 0
  %5 = load ptr, ptr %4, align 8, !tbaa !102
  %6 = getelementptr inbounds nuw %struct.Abc_Ntk_t_, ptr %5, i32 0, i32 5
  %7 = load ptr, ptr %6, align 8, !tbaa !23
  %8 = getelementptr inbounds nuw %struct.Vec_Ptr_t_, ptr %7, i32 0, i32 2
  %9 = load ptr, ptr %8, align 8, !tbaa !14
  %10 = load ptr, ptr %2, align 8, !tbaa !12
  %11 = getelementptr inbounds nuw %struct.Abc_Obj_t_, ptr %10, i32 0, i32 4
  %12 = getelementptr inbounds nuw %struct.Vec_Int_t_, ptr %11, i32 0, i32 2
  %13 = load ptr, ptr %12, align 8, !tbaa !43
  %14 = getelementptr inbounds i32, ptr %13, i64 0
  %15 = load i32, ptr %14, align 4, !tbaa !8
  %16 = sext i32 %15 to i64
  %17 = getelementptr inbounds ptr, ptr %9, i64 %16
  %18 = load ptr, ptr %17, align 8, !tbaa !20
  ret ptr %18
}

; Function Attrs: inlinehint nounwind uwtable
define internal void @Abc_NodeSetTravIdCurrent(ptr noundef %0) #2 {
  %2 = alloca ptr, align 8
  store ptr %0, ptr %2, align 8, !tbaa !12
  %3 = load ptr, ptr %2, align 8, !tbaa !12
  %4 = load ptr, ptr %2, align 8, !tbaa !12
  %5 = call ptr @Abc_ObjNtk(ptr noundef %4)
  %6 = getelementptr inbounds nuw %struct.Abc_Ntk_t_, ptr %5, i32 0, i32 26
  %7 = load i32, ptr %6, align 8, !tbaa !101
  call void @Abc_NodeSetTravId(ptr noundef %3, i32 noundef %7)
  ret void
}

; Function Attrs: nounwind uwtable
define i32 @Sim_NtkSimTwoPats_rec(ptr noundef %0) #0 {
  %2 = alloca i32, align 4
  %3 = alloca ptr, align 8
  %4 = alloca i32, align 4
  %5 = alloca i32, align 4
  %6 = alloca i32, align 4
  store ptr %0, ptr %3, align 8, !tbaa !12
  call void @llvm.lifetime.start.p0(i64 4, ptr %4) #7
  call void @llvm.lifetime.start.p0(i64 4, ptr %5) #7
  %7 = load ptr, ptr %3, align 8, !tbaa !12
  %8 = call i32 @Abc_NodeIsTravIdCurrent(ptr noundef %7)
  %9 = icmp ne i32 %8, 0
  br i1 %9, label %10, label %16

10:                                               ; preds = %1
  %11 = load ptr, ptr %3, align 8, !tbaa !12
  %12 = getelementptr inbounds nuw %struct.Abc_Obj_t_, ptr %11, i32 0, i32 7
  %13 = load ptr, ptr %12, align 8, !tbaa !100
  %14 = ptrtoint ptr %13 to i64
  %15 = trunc i64 %14 to i32
  store i32 %15, ptr %2, align 4
  store i32 1, ptr %6, align 4
  br label %48

16:                                               ; preds = %1
  %17 = load ptr, ptr %3, align 8, !tbaa !12
  call void @Abc_NodeSetTravIdCurrent(ptr noundef %17)
  %18 = load ptr, ptr %3, align 8, !tbaa !12
  %19 = call ptr @Abc_ObjFanin0(ptr noundef %18)
  %20 = call i32 @Sim_NtkSimTwoPats_rec(ptr noundef %19)
  store i32 %20, ptr %4, align 4, !tbaa !8
  %21 = load ptr, ptr %3, align 8, !tbaa !12
  %22 = call ptr @Abc_ObjFanin1(ptr noundef %21)
  %23 = call i32 @Sim_NtkSimTwoPats_rec(ptr noundef %22)
  store i32 %23, ptr %5, align 4, !tbaa !8
  %24 = load ptr, ptr %3, align 8, !tbaa !12
  %25 = call i32 @Abc_ObjFaninC0(ptr noundef %24)
  %26 = icmp ne i32 %25, 0
  br i1 %26, label %27, label %30

27:                                               ; preds = %16
  %28 = load i32, ptr %4, align 4, !tbaa !8
  %29 = xor i32 %28, -1
  store i32 %29, ptr %4, align 4, !tbaa !8
  br label %30

30:                                               ; preds = %27, %16
  %31 = load ptr, ptr %3, align 8, !tbaa !12
  %32 = call i32 @Abc_ObjFaninC1(ptr noundef %31)
  %33 = icmp ne i32 %32, 0
  br i1 %33, label %34, label %37

34:                                               ; preds = %30
  %35 = load i32, ptr %5, align 4, !tbaa !8
  %36 = xor i32 %35, -1
  store i32 %36, ptr %5, align 4, !tbaa !8
  br label %37

37:                                               ; preds = %34, %30
  %38 = load i32, ptr %4, align 4, !tbaa !8
  %39 = load i32, ptr %5, align 4, !tbaa !8
  %40 = and i32 %38, %39
  %41 = sext i32 %40 to i64
  %42 = inttoptr i64 %41 to ptr
  %43 = load ptr, ptr %3, align 8, !tbaa !12
  %44 = getelementptr inbounds nuw %struct.Abc_Obj_t_, ptr %43, i32 0, i32 7
  store ptr %42, ptr %44, align 8, !tbaa !100
  %45 = load i32, ptr %4, align 4, !tbaa !8
  %46 = load i32, ptr %5, align 4, !tbaa !8
  %47 = and i32 %45, %46
  store i32 %47, ptr %2, align 4
  store i32 1, ptr %6, align 4
  br label %48

48:                                               ; preds = %37, %10
  call void @llvm.lifetime.end.p0(i64 4, ptr %5) #7
  call void @llvm.lifetime.end.p0(i64 4, ptr %4) #7
  %49 = load i32, ptr %2, align 4
  ret i32 %49
}