; Function Attrs: nounwind uwtable
define i32 @Sim_NtkSimTwoPats_rec(ptr noundef captures(none) %0) local_unnamed_addr #0 {
  %2 = tail call fastcc i32 @Abc_NodeIsTravIdCurrent(ptr noundef %0)
  %.not = icmp eq i32 %2, 0
  br i1 %.not, label %7, label %common.ret

common.ret:                                       ; preds = %1
  %3 = getelementptr inbounds nuw i8, ptr %0, i64 64
  %4 = load ptr, ptr %3, align 8, !tbaa !95
  %5 = ptrtoint ptr %4 to i64
  %6 = trunc i64 %5 to i32
  br label %common.ret27

7:                                                ; preds = %1
  %.val21 = load ptr, ptr %0, align 8, !tbaa !96
  %8 = getelementptr i8, ptr %0, i64 16
  %.val22 = load i32, ptr %8, align 8, !tbaa !29
  %9 = getelementptr inbounds nuw i8, ptr %.val21, i64 216
  %10 = load i32, ptr %9, align 8, !tbaa !97
  %11 = getelementptr inbounds nuw i8, ptr %.val21, i64 224
  %12 = add nsw i32 %.val22, 1
  %13 = getelementptr inbounds nuw i8, ptr %.val21, i64 228
  %14 = load i32, ptr %13, align 4, !tbaa !58
  %.not.i.not.i.i.i = icmp slt i32 %.val22, %14
  br i1 %.not.i.not.i.i.i, label %Abc_NodeSetTravIdCurrent.exit, label %15

15:                                               ; preds = %7
  %16 = load i32, ptr %11, align 8, !tbaa !98
  %17 = shl nsw i32 %16, 1
  %.not.i.i.i = icmp slt i32 %.val22, %17
  %.not.i.i.not.i.i.i = icmp sgt i32 %16, %.val22
  br i1 %.not.i.i.i, label %30, label %18

18:                                               ; preds = %15
  br i1 %.not.i.i.not.i.i.i, label %Vec_IntGrow.exit.i.i.i.i, label %19

19:                                               ; preds = %18
  %20 = getelementptr inbounds nuw i8, ptr %.val21, i64 232
  %21 = load ptr, ptr %20, align 8, !tbaa !59
  %.not9.i.i.i.i.i = icmp eq ptr %21, null
  %22 = sext i32 %12 to i64
  %23 = shl nsw i64 %22, 2
  br i1 %.not9.i.i.i.i.i, label %26, label %24

24:                                               ; preds = %19
  %25 = tail call ptr @realloc(ptr noundef nonnull %21, i64 noundef %23) #13
  br label %28

26:                                               ; preds = %19
  %27 = tail call noalias ptr @malloc(i64 noundef %23) #14
  br label %28

28:                                               ; preds = %26, %24
  %29 = phi ptr [ %25, %24 ], [ %27, %26 ]
  store ptr %29, ptr %20, align 8, !tbaa !59
  br label %Vec_IntGrow.exit.sink.split.i.i.i.i

30:                                               ; preds = %15
  br i1 %.not.i.i.not.i.i.i, label %Vec_IntGrow.exit.i.i.i.i, label %31

31:                                               ; preds = %30
  %32 = getelementptr inbounds nuw i8, ptr %.val21, i64 232
  %33 = load ptr, ptr %32, align 8, !tbaa !59
  %.not9.i21.i.i.i.i = icmp eq ptr %33, null
  %34 = sext i32 %17 to i64
  %35 = shl nsw i64 %34, 2
  br i1 %.not9.i21.i.i.i.i, label %38, label %36

36:                                               ; preds = %31
  %37 = tail call ptr @realloc(ptr noundef nonnull %33, i64 noundef %35) #13
  br label %40

38:                                               ; preds = %31
  %39 = tail call noalias ptr @malloc(i64 noundef %35) #14
  br label %40

40:                                               ; preds = %38, %36
  %41 = phi ptr [ %37, %36 ], [ %39, %38 ]
  store ptr %41, ptr %32, align 8, !tbaa !59
  br label %Vec_IntGrow.exit.sink.split.i.i.i.i

Vec_IntGrow.exit.sink.split.i.i.i.i:              ; preds = %40, %28
  %.sink.i.i.i.i = phi i32 [ %17, %40 ], [ %12, %28 ]
  store i32 %.sink.i.i.i.i, ptr %11, align 8, !tbaa !98
  %.pre.i.i.i = load i32, ptr %13, align 4, !tbaa !58
  br label %Vec_IntGrow.exit.i.i.i.i

Vec_IntGrow.exit.i.i.i.i:                         ; preds = %Vec_IntGrow.exit.sink.split.i.i.i.i, %30, %18
  %42 = phi i32 [ %.pre.i.i.i, %Vec_IntGrow.exit.sink.split.i.i.i.i ], [ %14, %30 ], [ %14, %18 ]
  %.not4.i.i.i = icmp sgt i32 %42, %.val22
  br i1 %.not4.i.i.i, label %._crit_edge.i.i.i.i, label %.lr.ph.i.i.i.i

.lr.ph.i.i.i.i:                                   ; preds = %Vec_IntGrow.exit.i.i.i.i
  %43 = getelementptr inbounds nuw i8, ptr %.val21, i64 232
  %44 = load ptr, ptr %43, align 8, !tbaa !59
  %45 = sext i32 %42 to i64
  %46 = shl nsw i64 %45, 2
  %scevgep.i.i.i.i = getelementptr i8, ptr %44, i64 %46
  %47 = sub i32 %.val22, %42
  %48 = zext i32 %47 to i64
  %49 = shl nuw nsw i64 %48, 2
  %50 = add nuw nsw i64 %49, 4
  tail call void @llvm.memset.p0.i64(ptr noundef nonnull align 4 dereferenceable(1) %scevgep.i.i.i.i, i8 0, i64 %50, i1 false), !tbaa !33
  br label %._crit_edge.i.i.i.i

._crit_edge.i.i.i.i:                              ; preds = %.lr.ph.i.i.i.i, %Vec_IntGrow.exit.i.i.i.i
  store i32 %12, ptr %13, align 4, !tbaa !58
  %.val.pre = load ptr, ptr %0, align 8, !tbaa !96
  br label %Abc_NodeSetTravIdCurrent.exit

common.ret27:                                     ; preds = %Abc_NodeSetTravIdCurrent.exit, %common.ret
  %common.ret27.op = phi i32 [ %6, %common.ret ], [ %71, %Abc_NodeSetTravIdCurrent.exit ]
  ret i32 %common.ret27.op

Abc_NodeSetTravIdCurrent.exit:                    ; preds = %7, %._crit_edge.i.i.i.i
  %.val = phi ptr [ %.val21, %7 ], [ %.val.pre, %._crit_edge.i.i.i.i ]
  %51 = getelementptr i8, ptr %.val21, i64 232
  %.val.i.i.i = load ptr, ptr %51, align 8, !tbaa !59
  %52 = sext i32 %.val22 to i64
  %53 = getelementptr inbounds i32, ptr %.val.i.i.i, i64 %52
  store i32 %10, ptr %53, align 4, !tbaa !33
  %54 = getelementptr i8, ptr %0, i64 32
  %.val18 = load ptr, ptr %54, align 8, !tbaa !32
  %55 = getelementptr i8, ptr %.val, i64 32
  %.val.val = load ptr, ptr %55, align 8, !tbaa !26
  %.val18.val = load i32, ptr %.val18, align 4, !tbaa !33
  %56 = getelementptr i8, ptr %.val.val, i64 8
  %.val.val.val = load ptr, ptr %56, align 8, !tbaa !27
  %57 = sext i32 %.val18.val to i64
  %58 = getelementptr inbounds ptr, ptr %.val.val.val, i64 %57
  %59 = load ptr, ptr %58, align 8, !tbaa !28
  %60 = tail call i32 @Sim_NtkSimTwoPats_rec(ptr noundef %59)
  %.val19 = load ptr, ptr %0, align 8, !tbaa !96
  %.val20 = load ptr, ptr %54, align 8, !tbaa !32
  %61 = getelementptr i8, ptr %.val19, i64 32
  %.val19.val = load ptr, ptr %61, align 8, !tbaa !26
  %62 = getelementptr i8, ptr %.val20, i64 4
  %.val20.val = load i32, ptr %62, align 4, !tbaa !33
  %63 = getelementptr i8, ptr %.val19.val, i64 8
  %.val19.val.val = load ptr, ptr %63, align 8, !tbaa !27
  %64 = sext i32 %.val20.val to i64
  %65 = getelementptr inbounds ptr, ptr %.val19.val.val, i64 %64
  %66 = load ptr, ptr %65, align 8, !tbaa !28
  %67 = tail call i32 @Sim_NtkSimTwoPats_rec(ptr noundef %66)
  %68 = getelementptr i8, ptr %0, i64 20
  %.val23 = load i32, ptr %68, align 4
  %69 = shl i32 %.val23, 21
  %sext = ashr i32 %69, 31
  %spec.select = xor i32 %sext, %60
  %70 = shl i32 %.val23, 20
  %sext25 = ashr i32 %70, 31
  %.0 = xor i32 %sext25, %67
  %71 = and i32 %spec.select, %.0
  %72 = sext i32 %71 to i64
  %73 = inttoptr i64 %72 to ptr
  %74 = getelementptr inbounds nuw i8, ptr %0, i64 64
  store ptr %73, ptr %74, align 8, !tbaa !95
  br label %common.ret27
}